target datalayout = "e-m:e-p270:32:32-p271:32:32-p272:64:64-i64:64-i128:128-f80:128-n8:16:32:64-S128"
target triple = "x86_64-pc-linux-gnu"

@.str.6 = private unnamed_addr constant [2 x i8] c"r\00", align 1
@.str.175 = private unnamed_addr constant [14 x i8] c"/proc/cpuinfo\00", align 1
@search_string = hidden global ptr @.str.177, align 8
@.str.178 = private unnamed_addr constant [7 x i8] c"x86_64\00", align 1

; Function Attrs: mustprogress nounwind uwtable
define hidden void @_ZN2os20get_summary_cpu_infoEPcm(ptr noundef %0, i64 noundef %1) #1 align 2 {
  %3 = alloca ptr, align 8
  %4 = alloca i64, align 8
  %5 = alloca ptr, align 8
  %6 = alloca [256 x i8], align 16
  %7 = alloca ptr, align 8
  %8 = alloca ptr, align 8
  %9 = alloca ptr, align 8
  %10 = alloca ptr, align 8
  store ptr %0, ptr %3, align 8
  store i64 %1, ptr %4, align 8
  %11 = call noundef ptr @_ZN2os5fopenEPKcS1_(ptr noundef @.str.175, ptr noundef @.str.6)
  store ptr %11, ptr %5, align 8
  %12 = load ptr, ptr %5, align 8
  %13 = icmp ne ptr %12, null
  br i1 %13, label %14, label %87

14:                                               ; preds = %2
  br label %15

15:                                               ; preds = %83, %14
  %16 = load ptr, ptr %5, align 8
  %17 = call i32 @feof(ptr noundef %16) #12
  %18 = icmp ne i32 %17, 0
  %19 = xor i1 %18, true
  br i1 %19, label %20, label %84

20:                                               ; preds = %15
  %21 = getelementptr inbounds [256 x i8], ptr %6, i64 0, i64 0
  %22 = load ptr, ptr %5, align 8
  %23 = call ptr @fgets(ptr noundef %21, i32 noundef 256, ptr noundef %22)
  %24 = icmp ne ptr %23, null
  br i1 %24, label %25, label %83

25:                                               ; preds = %20
  %26 = getelementptr inbounds [256 x i8], ptr %6, i64 0, i64 0
  %27 = load ptr, ptr @search_string, align 8
  %28 = call noundef ptr @strstr(ptr noundef %26, ptr noundef %27) #13
  store ptr %28, ptr %7, align 8
  %29 = load ptr, ptr %7, align 8
  %30 = icmp ne ptr %29, null
  br i1 %30, label %31, label %82

31:                                               ; preds = %25
  %32 = load ptr, ptr %7, align 8
  %33 = load ptr, ptr @search_string, align 8
  %34 = call i64 @strlen(ptr noundef %33) #13
  %35 = getelementptr inbounds i8, ptr %32, i64 %34
  store ptr %35, ptr %8, align 8
  %36 = getelementptr inbounds [256 x i8], ptr %6, i64 0, i64 0
  %37 = getelementptr inbounds [256 x i8], ptr %6, i64 0, i64 0
  %38 = call i64 @strlen(ptr noundef %37) #13
  %39 = getelementptr inbounds i8, ptr %36, i64 %38
  store ptr %39, ptr %9, align 8
  br label %40

40:                                               ; preds = %60, %31
  %41 = load ptr, ptr %8, align 8
  %42 = load ptr, ptr %9, align 8
  %43 = icmp ne ptr %41, %42
  br i1 %43, label %44, label %63

44:                                               ; preds = %40
  %45 = load ptr, ptr %8, align 8
  %46 = load i8, ptr %45, align 1
  %47 = sext i8 %46 to i32
  %48 = icmp ne i32 %47, 32
  br i1 %48, label %49, label %60

49:                                               ; preds = %44
  %50 = load ptr, ptr %8, align 8
  %51 = load i8, ptr %50, align 1
  %52 = sext i8 %51 to i32
  %53 = icmp ne i32 %52, 9
  br i1 %53, label %54, label %60

54:                                               ; preds = %49
  %55 = load ptr, ptr %8, align 8
  %56 = load i8, ptr %55, align 1
  %57 = sext i8 %56 to i32
  %58 = icmp ne i32 %57, 58
  br i1 %58, label %59, label %60

59:                                               ; preds = %54
  br label %63

60:                                               ; preds = %54, %49, %44
  %61 = load ptr, ptr %8, align 8
  %62 = getelementptr inbounds i8, ptr %61, i32 1
  store ptr %62, ptr %8, align 8
  br label %40, !llvm.loop !28

63:                                               ; preds = %59, %40
  %64 = load ptr, ptr %8, align 8
  %65 = load ptr, ptr %9, align 8
  %66 = icmp ne ptr %64, %65
  br i1 %66, label %67, label %81

67:                                               ; preds = %63
  %68 = getelementptr inbounds [256 x i8], ptr %6, i64 0, i64 0
  %69 = call noundef ptr @strchr(ptr noundef %68, i32 noundef 10) #13
  store ptr %69, ptr %10, align 8
  %70 = load ptr, ptr %10, align 8
  %71 = icmp ne ptr %70, null
  br i1 %71, label %72, label %74

72:                                               ; preds = %67
  %73 = load ptr, ptr %10, align 8
  store i8 0, ptr %73, align 1
  br label %74

74:                                               ; preds = %72, %67
  %75 = load ptr, ptr %3, align 8
  %76 = load ptr, ptr %8, align 8
  %77 = load i64, ptr %4, align 8
  %78 = call ptr @strncpy(ptr noundef %75, ptr noundef %76, i64 noundef %77) #12
  %79 = load ptr, ptr %5, align 8
  %80 = call i32 @fclose(ptr noundef %79)
  br label %91

81:                                               ; preds = %63
  br label %82

82:                                               ; preds = %81, %25
  br label %83

83:                                               ; preds = %82, %20
  br label %15, !llvm.loop !29

84:                                               ; preds = %15
  %85 = load ptr, ptr %5, align 8
  %86 = call i32 @fclose(ptr noundef %85)
  br label %87

87:                                               ; preds = %84, %2
  %88 = load ptr, ptr %3, align 8
  %89 = load i64, ptr %4, align 8
  %90 = call ptr @strncpy(ptr noundef %88, ptr noundef @.str.178, i64 noundef %89) #12
  br label %91

91:                                               ; preds = %87, %74
  ret void
}