; Function Attrs: mustprogress nounwind uwtable
define hidden void @_ZN2os20get_summary_cpu_infoEPcm(ptr noundef %0, i64 noundef %1) local_unnamed_addr #0 align 2 {
  %3 = alloca [256 x i8], align 16
  %4 = tail call noundef ptr @_ZN2os5fopenEPKcS1_(ptr noundef nonnull @.str.175, ptr noundef nonnull @.str.6) #26
  %.not = icmp eq ptr %4, null
  br i1 %.not, label %26, label %.preheader

.preheader:                                       ; preds = %2
  %5 = tail call i32 @feof(ptr noundef nonnull %4) #26
  %.not2435 = icmp eq i32 %5, 0
  br i1 %.not2435, label %.lr.ph36, label %._crit_edge

.lr.ph36:                                         ; preds = %.preheader, %.critedge
  %6 = call ptr @fgets(ptr noundef nonnull %3, i32 noundef 256, ptr noundef nonnull %4)
  %.not25 = icmp eq ptr %6, null
  br i1 %.not25, label %.critedge, label %7

7:                                                ; preds = %.lr.ph36
  %8 = load ptr, ptr @search_string, align 8
  %9 = call noundef ptr @strstr(ptr noundef nonnull dereferenceable(1) %3, ptr noundef nonnull dereferenceable(1) %8) #27
  %.not26 = icmp eq ptr %9, null
  br i1 %.not26, label %.critedge, label %10

10:                                               ; preds = %7
  %11 = call i64 @strlen(ptr noundef nonnull dereferenceable(1) %8) #27
  %12 = getelementptr inbounds i8, ptr %9, i64 %11
  %13 = call i64 @strlen(ptr noundef nonnull dereferenceable(1) %3) #27
  %14 = getelementptr inbounds i8, ptr %3, i64 %13
  %.not2733 = icmp eq ptr %12, %14
  br i1 %.not2733, label %.critedge, label %.lr.ph

.lr.ph:                                           ; preds = %10, %16
  %.034 = phi ptr [ %17, %16 ], [ %12, %10 ]
  %15 = load i8, ptr %.034, align 1
  switch i8 %15, label %18 [
    i8 32, label %16
    i8 9, label %16
    i8 58, label %16
  ]

16:                                               ; preds = %.lr.ph, %.lr.ph, %.lr.ph
  %17 = getelementptr inbounds i8, ptr %.034, i64 1
  %.not27 = icmp eq ptr %17, %14
  br i1 %.not27, label %.critedge, label %.lr.ph, !llvm.loop !30

18:                                               ; preds = %.lr.ph
  %19 = call noundef ptr @strchr(ptr noundef nonnull dereferenceable(1) %3, i32 noundef 10) #27
  %.not31 = icmp eq ptr %19, null
  br i1 %.not31, label %21, label %20

20:                                               ; preds = %18
  store i8 0, ptr %19, align 1
  br label %21

21:                                               ; preds = %20, %18
  %22 = call ptr @strncpy(ptr noundef %0, ptr noundef nonnull %.034, i64 noundef %1) #26
  %23 = call i32 @fclose(ptr noundef nonnull %4)
  br label %28

.critedge:                                        ; preds = %16, %10, %7, %.lr.ph36
  %24 = call i32 @feof(ptr noundef nonnull %4) #26
  %.not24 = icmp eq i32 %24, 0
  br i1 %.not24, label %.lr.ph36, label %._crit_edge, !llvm.loop !31

._crit_edge:                                      ; preds = %.critedge, %.preheader
  %25 = call i32 @fclose(ptr noundef nonnull %4)
  br label %26

26:                                               ; preds = %._crit_edge, %2
  %27 = call ptr @strncpy(ptr noundef %0, ptr noundef nonnull dereferenceable(7) @.str.178, i64 noundef %1) #26
  br label %28

28:                                               ; preds = %26, %21
  ret void
}